; Function Attrs: nounwind uwtable
define noundef ptr @Gia_PolynCoreCollect(ptr noundef %0, ptr noundef readonly captures(none) %1, ptr noundef readonly captures(none) %2) local_unnamed_addr #0 {
  %4 = tail call noalias dereferenceable_or_null(16) ptr @malloc(i64 noundef 16) #21
  %5 = getelementptr inbounds nuw i8, ptr %4, i64 4
  store i32 0, ptr %5, align 4, !tbaa !29
  store i32 1000, ptr %4, align 8, !tbaa !30
  %6 = tail call noalias dereferenceable_or_null(4000) ptr @malloc(i64 noundef 4000) #21
  %7 = getelementptr inbounds nuw i8, ptr %4, i64 8
  store ptr %6, ptr %7, align 8, !tbaa !31
  %8 = getelementptr i8, ptr %0, i64 24
  %.val37 = load i32, ptr %8, align 8, !tbaa !46
  %9 = ashr i32 %.val37, 5
  %10 = and i32 %.val37, 31
  %11 = icmp ne i32 %10, 0
  %12 = zext i1 %11 to i32
  %13 = add nsw i32 %9, %12
  %14 = tail call noalias dereferenceable_or_null(16) ptr @malloc(i64 noundef 16) #21
  %15 = shl nsw i32 %13, 5
  store i32 %15, ptr %14, align 8, !tbaa !47
  %.not.i.i = icmp eq i32 %13, 0
  br i1 %.not.i.i, label %Vec_BitStart.exit, label %16

16:                                               ; preds = %3
  %17 = sext i32 %13 to i64
  %18 = shl nsw i64 %17, 2
  %19 = tail call noalias ptr @malloc(i64 noundef %18) #21
  br label %Vec_BitStart.exit

Vec_BitStart.exit:                                ; preds = %3, %16
  %.pre-phi8.i = phi i64 [ %18, %16 ], [ 0, %3 ]
  %20 = phi ptr [ %19, %16 ], [ null, %3 ]
  %21 = getelementptr inbounds nuw i8, ptr %14, i64 4
  %22 = getelementptr inbounds nuw i8, ptr %14, i64 8
  store ptr %20, ptr %22, align 8, !tbaa !49
  store i32 %15, ptr %21, align 4, !tbaa !50
  tail call void @llvm.memset.p0.i64(ptr align 4 %20, i8 0, i64 %.pre-phi8.i, i1 false)
  %23 = getelementptr i8, ptr %2, i64 4
  %.val = load i32, ptr %23, align 4, !tbaa !29
  %24 = icmp sgt i32 %.val, 0
  br i1 %24, label %.lr.ph, label %.critedge

.lr.ph:                                           ; preds = %Vec_BitStart.exit
  %25 = getelementptr i8, ptr %2, i64 8
  %26 = getelementptr i8, ptr %1, i64 8
  %27 = zext nneg i32 %.val to i64
  br label %28

28:                                               ; preds = %.lr.ph, %28
  %indvars.iv = phi i64 [ %27, %.lr.ph ], [ %indvars.iv.next, %28 ]
  %indvars.iv.next = add nsw i64 %indvars.iv, -1
  %.val36 = load ptr, ptr %25, align 8, !tbaa !31
  %29 = getelementptr inbounds nuw i32, ptr %.val36, i64 %indvars.iv.next
  %30 = load i32, ptr %29, align 4, !tbaa !32
  %31 = mul nsw i32 %30, 6
  %.val35 = load ptr, ptr %26, align 8, !tbaa !31
  %32 = sext i32 %31 to i64
  %33 = getelementptr i32, ptr %.val35, i64 %32
  %34 = load i32, ptr %33, align 4, !tbaa !32
  %35 = or disjoint i32 %31, 1
  %36 = sext i32 %35 to i64
  %37 = getelementptr inbounds i32, ptr %.val35, i64 %36
  %38 = load i32, ptr %37, align 4, !tbaa !32
  %39 = getelementptr i8, ptr %33, i64 8
  %40 = load i32, ptr %39, align 4, !tbaa !32
  %41 = and i32 %34, 31
  %42 = shl nuw i32 1, %41
  %43 = load ptr, ptr %22, align 8, !tbaa !49
  %44 = ashr i32 %34, 5
  %45 = sext i32 %44 to i64
  %46 = getelementptr inbounds i32, ptr %43, i64 %45
  %47 = load i32, ptr %46, align 4, !tbaa !32
  %48 = or i32 %47, %42
  store i32 %48, ptr %46, align 4, !tbaa !32
  %49 = and i32 %38, 31
  %50 = shl nuw i32 1, %49
  %51 = ashr i32 %38, 5
  %52 = sext i32 %51 to i64
  %53 = getelementptr inbounds i32, ptr %43, i64 %52
  %54 = load i32, ptr %53, align 4, !tbaa !32
  %55 = or i32 %54, %50
  store i32 %55, ptr %53, align 4, !tbaa !32
  %56 = and i32 %40, 31
  %57 = shl nuw i32 1, %56
  %58 = ashr i32 %40, 5
  %59 = sext i32 %58 to i64
  %60 = getelementptr inbounds i32, ptr %43, i64 %59
  %61 = load i32, ptr %60, align 4, !tbaa !32
  %62 = or i32 %61, %57
  store i32 %62, ptr %60, align 4, !tbaa !32
  %63 = getelementptr i8, ptr %33, i64 12
  %64 = load i32, ptr %63, align 4, !tbaa !32
  %65 = getelementptr i8, ptr %33, i64 16
  %66 = load i32, ptr %65, align 4, !tbaa !32
  tail call void @Gia_PolynCoreCollect_rec(ptr noundef %0, i32 noundef %64, ptr noundef nonnull %4, ptr noundef nonnull %14)
  tail call void @Gia_PolynCoreCollect_rec(ptr noundef %0, i32 noundef %66, ptr noundef nonnull %4, ptr noundef nonnull %14)
  %67 = icmp samesign ugt i64 %indvars.iv, 1
  br i1 %67, label %28, label %.critedge.loopexit, !llvm.loop !68

.critedge.loopexit:                               ; preds = %28
  %.pre = load ptr, ptr %22, align 8, !tbaa !49
  br label %.critedge

.critedge:                                        ; preds = %.critedge.loopexit, %Vec_BitStart.exit
  %68 = phi ptr [ %.pre, %.critedge.loopexit ], [ %20, %Vec_BitStart.exit ]
  %.not.i = icmp eq ptr %68, null
  br i1 %.not.i, label %Vec_BitFree.exit, label %69

69:                                               ; preds = %.critedge
  tail call void @free(ptr noundef nonnull %68) #19
  br label %Vec_BitFree.exit

Vec_BitFree.exit:                                 ; preds = %.critedge, %69
  tail call void @free(ptr noundef nonnull %14) #19
  ret ptr %4
}